target datalayout = "e-m:e-p270:32:32-p271:32:32-p272:64:64-i64:64-i128:128-f80:128-n8:16:32:64-S128"
target triple = "x86_64-pc-linux-gnu"

%struct.AVFilterContext = type { ptr, ptr, ptr, ptr, ptr, i32, ptr, ptr, i32, ptr, ptr, i32, i32, ptr, ptr, ptr, ptr, i32, ptr, i32, i32 }
%struct.ASubBoostContext = type { ptr, double, double, double, double, double, double, double, double, double, double, double, double, double, double, ptr, %struct.AVChannelLayout, ptr, i32, ptr, ptr }
%struct.AVChannelLayout = type { i32, i32, %union.anon.1, ptr }
%union.anon.1 = type { i64 }
%struct.ThreadData = type { ptr, ptr }
%struct.AVFilterLink = type { ptr, ptr, ptr, ptr, i32, i32, i32, i32, %struct.AVRational, i32, i32, i32, %struct.AVChannelLayout, %struct.AVRational, ptr, i32, %struct.AVFilterFormatsConfig, %struct.AVFilterFormatsConfig }
%struct.AVRational = type { i32, i32 }
%struct.AVFilterFormatsConfig = type { ptr, ptr, ptr, ptr, ptr }
%struct.AVFrame = type { [8 x ptr], [8 x i32], ptr, i32, i32, i32, i32, i32, %struct.AVRational, i64, i64, %struct.AVRational, i32, ptr, i32, i32, [8 x ptr], ptr, i32, ptr, i32, i32, i32, i32, i32, i32, i32, i64, ptr, i32, ptr, ptr, i64, i64, i64, i64, ptr, %struct.AVChannelLayout, i64 }

@.str.3 = private unnamed_addr constant [4 x i8] c"all\00", align 1

; Function Attrs: nounwind uwtable
define internal i32 @filter_frame(ptr noundef %0, ptr noundef %1) #1 {
  %3 = alloca i32, align 4
  %4 = alloca ptr, align 8
  %5 = alloca ptr, align 8
  %6 = alloca ptr, align 8
  %7 = alloca ptr, align 8
  %8 = alloca ptr, align 8
  %9 = alloca %struct.ThreadData, align 8
  %10 = alloca ptr, align 8
  %11 = alloca i32, align 4
  %12 = alloca i32, align 4
  store ptr %0, ptr %4, align 8, !tbaa !26
  store ptr %1, ptr %5, align 8, !tbaa !28
  call void @llvm.lifetime.start.p0(i64 8, ptr %6) #8
  %13 = load ptr, ptr %4, align 8, !tbaa !26
  %14 = getelementptr inbounds nuw %struct.AVFilterLink, ptr %13, i32 0, i32 2
  %15 = load ptr, ptr %14, align 8, !tbaa !30
  store ptr %15, ptr %6, align 8, !tbaa !4
  call void @llvm.lifetime.start.p0(i64 8, ptr %7) #8
  %16 = load ptr, ptr %6, align 8, !tbaa !4
  %17 = getelementptr inbounds nuw %struct.AVFilterContext, ptr %16, i32 0, i32 9
  %18 = load ptr, ptr %17, align 8, !tbaa !9
  store ptr %18, ptr %7, align 8, !tbaa !22
  call void @llvm.lifetime.start.p0(i64 8, ptr %8) #8
  %19 = load ptr, ptr %6, align 8, !tbaa !4
  %20 = getelementptr inbounds nuw %struct.AVFilterContext, ptr %19, i32 0, i32 7
  %21 = load ptr, ptr %20, align 8, !tbaa !38
  %22 = getelementptr inbounds ptr, ptr %21, i64 0
  %23 = load ptr, ptr %22, align 8, !tbaa !26
  store ptr %23, ptr %8, align 8, !tbaa !26
  call void @llvm.lifetime.start.p0(i64 16, ptr %9) #8
  call void @llvm.lifetime.start.p0(i64 8, ptr %10) #8
  call void @llvm.lifetime.start.p0(i64 4, ptr %11) #8
  %24 = load ptr, ptr %7, align 8, !tbaa !22
  %25 = getelementptr inbounds nuw %struct.ASubBoostContext, ptr %24, i32 0, i32 16
  %26 = load ptr, ptr %4, align 8, !tbaa !26
  %27 = getelementptr inbounds nuw %struct.AVFilterLink, ptr %26, i32 0, i32 12
  %28 = call i32 @av_channel_layout_copy(ptr noundef %25, ptr noundef %27)
  store i32 %28, ptr %11, align 4, !tbaa !25
  %29 = load i32, ptr %11, align 4, !tbaa !25
  %30 = icmp slt i32 %29, 0
  br i1 %30, label %31, label %33

31:                                               ; preds = %2
  %32 = load i32, ptr %11, align 4, !tbaa !25
  store i32 %32, ptr %3, align 4
  store i32 1, ptr %12, align 4
  br label %97

33:                                               ; preds = %2
  %34 = load ptr, ptr %7, align 8, !tbaa !22
  %35 = getelementptr inbounds nuw %struct.ASubBoostContext, ptr %34, i32 0, i32 15
  %36 = load ptr, ptr %35, align 8, !tbaa !39
  %37 = call i32 @strcmp(ptr noundef %36, ptr noundef @.str.3) #9
  %38 = icmp ne i32 %37, 0
  br i1 %38, label %39, label %46

39:                                               ; preds = %33
  %40 = load ptr, ptr %7, align 8, !tbaa !22
  %41 = getelementptr inbounds nuw %struct.ASubBoostContext, ptr %40, i32 0, i32 16
  %42 = load ptr, ptr %7, align 8, !tbaa !22
  %43 = getelementptr inbounds nuw %struct.ASubBoostContext, ptr %42, i32 0, i32 15
  %44 = load ptr, ptr %43, align 8, !tbaa !39
  %45 = call i32 @av_channel_layout_from_string(ptr noundef %41, ptr noundef %44)
  br label %46

46:                                               ; preds = %39, %33
  %47 = load ptr, ptr %5, align 8, !tbaa !28
  %48 = call i32 @av_frame_is_writable(ptr noundef %47)
  %49 = icmp ne i32 %48, 0
  br i1 %49, label %50, label %52

50:                                               ; preds = %46
  %51 = load ptr, ptr %5, align 8, !tbaa !28
  store ptr %51, ptr %10, align 8, !tbaa !28
  br label %65

52:                                               ; preds = %46
  %53 = load ptr, ptr %8, align 8, !tbaa !26
  %54 = load ptr, ptr %5, align 8, !tbaa !28
  %55 = getelementptr inbounds nuw %struct.AVFrame, ptr %54, i32 0, i32 5
  %56 = load i32, ptr %55, align 8, !tbaa !43
  %57 = call ptr @ff_get_audio_buffer(ptr noundef %53, i32 noundef %56)
  store ptr %57, ptr %10, align 8, !tbaa !28
  %58 = load ptr, ptr %10, align 8, !tbaa !28
  %59 = icmp ne ptr %58, null
  br i1 %59, label %61, label %60

60:                                               ; preds = %52
  call void @av_frame_free(ptr noundef %5)
  store i32 -12, ptr %3, align 4
  store i32 1, ptr %12, align 4
  br label %97

61:                                               ; preds = %52
  %62 = load ptr, ptr %10, align 8, !tbaa !28
  %63 = load ptr, ptr %5, align 8, !tbaa !28
  %64 = call i32 @av_frame_copy_props(ptr noundef %62, ptr noundef %63)
  br label %65

65:                                               ; preds = %61, %50
  %66 = load ptr, ptr %5, align 8, !tbaa !28
  %67 = getelementptr inbounds nuw %struct.ThreadData, ptr %9, i32 0, i32 0
  store ptr %66, ptr %67, align 8, !tbaa !49
  %68 = load ptr, ptr %10, align 8, !tbaa !28
  %69 = getelementptr inbounds nuw %struct.ThreadData, ptr %9, i32 0, i32 1
  store ptr %68, ptr %69, align 8, !tbaa !51
  %70 = load ptr, ptr %6, align 8, !tbaa !4
  %71 = load ptr, ptr %4, align 8, !tbaa !26
  %72 = getelementptr inbounds nuw %struct.AVFilterLink, ptr %71, i32 0, i32 12
  %73 = getelementptr inbounds nuw %struct.AVChannelLayout, ptr %72, i32 0, i32 1
  %74 = load i32, ptr %73, align 4, !tbaa !52
  %75 = load ptr, ptr %6, align 8, !tbaa !4
  %76 = call i32 @ff_filter_get_nb_threads(ptr noundef %75) #9
  %77 = icmp sgt i32 %74, %76
  br i1 %77, label %78, label %81

78:                                               ; preds = %65
  %79 = load ptr, ptr %6, align 8, !tbaa !4
  %80 = call i32 @ff_filter_get_nb_threads(ptr noundef %79) #9
  br label %86

81:                                               ; preds = %65
  %82 = load ptr, ptr %4, align 8, !tbaa !26
  %83 = getelementptr inbounds nuw %struct.AVFilterLink, ptr %82, i32 0, i32 12
  %84 = getelementptr inbounds nuw %struct.AVChannelLayout, ptr %83, i32 0, i32 1
  %85 = load i32, ptr %84, align 4, !tbaa !52
  br label %86

86:                                               ; preds = %81, %78
  %87 = phi i32 [ %80, %78 ], [ %85, %81 ]
  %88 = call i32 @ff_filter_execute(ptr noundef %70, ptr noundef @filter_channels, ptr noundef %9, ptr noundef null, i32 noundef %87)
  %89 = load ptr, ptr %10, align 8, !tbaa !28
  %90 = load ptr, ptr %5, align 8, !tbaa !28
  %91 = icmp ne ptr %89, %90
  br i1 %91, label %92, label %93

92:                                               ; preds = %86
  call void @av_frame_free(ptr noundef %5)
  br label %93

93:                                               ; preds = %92, %86
  %94 = load ptr, ptr %8, align 8, !tbaa !26
  %95 = load ptr, ptr %10, align 8, !tbaa !28
  %96 = call i32 @ff_filter_frame(ptr noundef %94, ptr noundef %95)
  store i32 %96, ptr %3, align 4
  store i32 1, ptr %12, align 4
  br label %97

97:                                               ; preds = %93, %60, %31
  call void @llvm.lifetime.end.p0(i64 4, ptr %11) #8
  call void @llvm.lifetime.end.p0(i64 8, ptr %10) #8
  call void @llvm.lifetime.end.p0(i64 16, ptr %9) #8
  call void @llvm.lifetime.end.p0(i64 8, ptr %8) #8
  call void @llvm.lifetime.end.p0(i64 8, ptr %7) #8
  call void @llvm.lifetime.end.p0(i64 8, ptr %6) #8
  %98 = load i32, ptr %3, align 4
  ret i32 %98
}