; Function Attrs: nounwind uwtable
define internal i32 @filter_frame(ptr noundef %0, ptr noundef %1) #1 {
  %3 = alloca ptr, align 8
  %4 = alloca %struct.ThreadData, align 8
  store ptr %1, ptr %3, align 8, !tbaa !46
  %5 = getelementptr inbounds nuw i8, ptr %0, i64 16
  %6 = load ptr, ptr %5, align 8, !tbaa !47
  %7 = getelementptr inbounds nuw i8, ptr %6, i64 72
  %8 = load ptr, ptr %7, align 8, !tbaa !4
  %9 = getelementptr inbounds nuw i8, ptr %6, i64 56
  %10 = load ptr, ptr %9, align 8, !tbaa !48
  %11 = load ptr, ptr %10, align 8, !tbaa !21
  call void @llvm.lifetime.start.p0(i64 16, ptr nonnull %4) #9
  %12 = getelementptr inbounds nuw i8, ptr %8, i64 128
  %13 = getelementptr inbounds nuw i8, ptr %0, i64 72
  %14 = tail call i32 @av_channel_layout_copy(ptr noundef nonnull %12, ptr noundef nonnull %13) #9
  %15 = icmp slt i32 %14, 0
  br i1 %15, label %41, label %16

16:                                               ; preds = %2
  %17 = getelementptr inbounds nuw i8, ptr %8, i64 120
  %18 = load ptr, ptr %17, align 8, !tbaa !49
  %19 = tail call i32 @strcmp(ptr noundef nonnull dereferenceable(1) %18, ptr noundef nonnull dereferenceable(4) @.str.3) #10
  %.not = icmp eq i32 %19, 0
  br i1 %.not, label %22, label %20

20:                                               ; preds = %16
  %21 = tail call i32 @av_channel_layout_from_string(ptr noundef nonnull %12, ptr noundef nonnull %18) #9
  br label %22

22:                                               ; preds = %20, %16
  %23 = tail call i32 @av_frame_is_writable(ptr noundef %1) #9
  %.not27 = icmp eq i32 %23, 0
  br i1 %.not27, label %24, label %31

24:                                               ; preds = %22
  %25 = getelementptr inbounds nuw i8, ptr %1, i64 112
  %26 = load i32, ptr %25, align 8, !tbaa !50
  %27 = tail call ptr @ff_get_audio_buffer(ptr noundef %11, i32 noundef %26) #9
  %.not28 = icmp eq ptr %27, null
  br i1 %.not28, label %28, label %29

28:                                               ; preds = %24
  call void @av_frame_free(ptr noundef nonnull %3) #9
  br label %41

29:                                               ; preds = %24
  %30 = tail call i32 @av_frame_copy_props(ptr noundef nonnull %27, ptr noundef nonnull %1) #9
  br label %31

31:                                               ; preds = %22, %29
  %.022 = phi ptr [ %27, %29 ], [ %1, %22 ]
  store ptr %1, ptr %4, align 8, !tbaa !56
  %32 = getelementptr inbounds nuw i8, ptr %4, i64 8
  store ptr %.022, ptr %32, align 8, !tbaa !58
  %33 = getelementptr inbounds nuw i8, ptr %0, i64 76
  %34 = load i32, ptr %33, align 4, !tbaa !59
  %35 = tail call i32 @ff_filter_get_nb_threads(ptr noundef nonnull %6) #10
  %. = tail call i32 @llvm.smin.i32(i32 %34, i32 %35)
  %36 = call i32 @ff_filter_execute(ptr noundef nonnull %6, ptr noundef nonnull @filter_channels, ptr noundef nonnull %4, ptr noundef null, i32 noundef %.) #9
  %37 = load ptr, ptr %3, align 8, !tbaa !46
  %.not29 = icmp eq ptr %.022, %37
  br i1 %.not29, label %39, label %38

38:                                               ; preds = %31
  call void @av_frame_free(ptr noundef nonnull %3) #9
  br label %39

39:                                               ; preds = %38, %31
  %40 = call i32 @ff_filter_frame(ptr noundef %11, ptr noundef %.022) #9
  br label %41

41:                                               ; preds = %2, %39, %28
  %.0 = phi i32 [ %40, %39 ], [ -12, %28 ], [ %14, %2 ]
  call void @llvm.lifetime.end.p0(i64 16, ptr nonnull %4) #9
  ret i32 %.0
}